; Function Attrs: null_pointer_is_valid sspstrong uwtable
define i32 @tvb_offset_from_real_beginning(ptr noundef %0) local_unnamed_addr #0 {
  %2 = getelementptr inbounds nuw i8, ptr %0, i64 8
  %3 = load ptr, ptr %2, align 8
  %4 = getelementptr inbounds nuw i8, ptr %3, i64 16
  %5 = load ptr, ptr %4, align 8
  %.not.i = icmp eq ptr %5, null
  br i1 %.not.i, label %6, label %tvb_offset_from_real_beginning_counter.exit

6:                                                ; preds = %1
  tail call void (ptr, ...) @proto_report_dissector_bug(ptr noundef nonnull @.str.9, ptr noundef nonnull @.str.1, i32 noundef 828) #18
  unreachable

tvb_offset_from_real_beginning_counter.exit:      ; preds = %1
  %7 = tail call i32 %5(ptr noundef %0, i32 noundef 0)
  ret i32 %7
}